target datalayout = "e-m:e-p270:32:32-p271:32:32-p272:64:64-i64:64-i128:128-f80:128-n8:16:32:64-S128"
target triple = "x86_64-unknown-linux-gnu"

%"class.smt::fingerprint" = type { ptr, i32, ptr, i32, ptr }

; Function Attrs: mustprogress uwtable
define linkonce_odr hidden noundef ptr @_ZnamR6region(i64 noundef %s, ptr noundef nonnull align 8 dereferenceable(40) %r) #5 comdat {
entry:
  %s.addr = alloca i64, align 8
  %r.addr = alloca ptr, align 8
  store i64 %s, ptr %s.addr, align 8
  store ptr %r, ptr %r.addr, align 8
  %0 = load ptr, ptr %r.addr, align 8
  %1 = load i64, ptr %s.addr, align 8
  %call = call noundef ptr @_ZN6region8allocateEm(ptr noundef nonnull align 8 dereferenceable(40) %0, i64 noundef %1)
  ret ptr %call
}

; Function Attrs: mustprogress uwtable
define hidden void @_ZN3smt11fingerprintC2ER6regionPvjP4exprjPKPNS_5enodeE(ptr noundef nonnull align 8 dereferenceable(40) %this, ptr noundef nonnull align 8 dereferenceable(40) %r, ptr noundef %d, i32 noundef %d_h, ptr noundef %def, i32 noundef %n, ptr noundef %args) unnamed_addr #5 align 2 {
entry:
  %this.addr = alloca ptr, align 8
  %r.addr = alloca ptr, align 8
  %d.addr = alloca ptr, align 8
  %d_h.addr = alloca i32, align 4
  %def.addr = alloca ptr, align 8
  %n.addr = alloca i32, align 4
  %args.addr = alloca ptr, align 8
  store ptr %this, ptr %this.addr, align 8
  store ptr %r, ptr %r.addr, align 8
  store ptr %d, ptr %d.addr, align 8
  store i32 %d_h, ptr %d_h.addr, align 4
  store ptr %def, ptr %def.addr, align 8
  store i32 %n, ptr %n.addr, align 4
  store ptr %args, ptr %args.addr, align 8
  %this1 = load ptr, ptr %this.addr, align 8
  %m_data = getelementptr inbounds %"class.smt::fingerprint", ptr %this1, i32 0, i32 0
  %0 = load ptr, ptr %d.addr, align 8
  store ptr %0, ptr %m_data, align 8
  %m_data_hash = getelementptr inbounds %"class.smt::fingerprint", ptr %this1, i32 0, i32 1
  %1 = load i32, ptr %d_h.addr, align 4
  store i32 %1, ptr %m_data_hash, align 8
  %m_def = getelementptr inbounds %"class.smt::fingerprint", ptr %this1, i32 0, i32 2
  %2 = load ptr, ptr %def.addr, align 8
  store ptr %2, ptr %m_def, align 8
  %m_num_args = getelementptr inbounds %"class.smt::fingerprint", ptr %this1, i32 0, i32 3
  %3 = load i32, ptr %n.addr, align 4
  store i32 %3, ptr %m_num_args, align 8
  %m_args = getelementptr inbounds %"class.smt::fingerprint", ptr %this1, i32 0, i32 4
  store ptr null, ptr %m_args, align 8
  %4 = load i32, ptr %n.addr, align 4
  %conv = zext i32 %4 to i64
  %5 = call { i64, i1 } @llvm.umul.with.overflow.i64(i64 %conv, i64 8)
  %6 = extractvalue { i64, i1 } %5, 1
  %7 = extractvalue { i64, i1 } %5, 0
  %8 = select i1 %6, i64 -1, i64 %7
  %9 = load ptr, ptr %r.addr, align 8
  %call = call noundef ptr @_ZnamR6region(i64 noundef %8, ptr noundef nonnull align 8 dereferenceable(40) %9)
  %m_args2 = getelementptr inbounds %"class.smt::fingerprint", ptr %this1, i32 0, i32 4
  store ptr %call, ptr %m_args2, align 8
  %m_args3 = getelementptr inbounds %"class.smt::fingerprint", ptr %this1, i32 0, i32 4
  %10 = load ptr, ptr %m_args3, align 8
  %11 = load ptr, ptr %args.addr, align 8
  %12 = load i32, ptr %n.addr, align 4
  %conv4 = zext i32 %12 to i64
  %mul = mul i64 8, %conv4
  call void @llvm.memcpy.p0.p0.i64(ptr align 8 %10, ptr align 8 %11, i64 %mul, i1 false)
  ret void
}