; Function Attrs: mustprogress uwtable
define hidden void @_ZN3smt11fingerprintC2ER6regionPvjP4exprjPKPNS_5enodeE(ptr nocapture noundef nonnull writeonly align 8 dereferenceable(40) %this, ptr noundef nonnull align 8 dereferenceable(40) %r, ptr noundef %d, i32 noundef %d_h, ptr noundef %def, i32 noundef %n, ptr nocapture noundef readonly %args) unnamed_addr #3 align 2 {
entry:
  store ptr %d, ptr %this, align 8
  %m_data_hash = getelementptr inbounds i8, ptr %this, i64 8
  store i32 %d_h, ptr %m_data_hash, align 8
  %m_def = getelementptr inbounds i8, ptr %this, i64 16
  store ptr %def, ptr %m_def, align 8
  %m_num_args = getelementptr inbounds i8, ptr %this, i64 24
  store i32 %n, ptr %m_num_args, align 8
  %m_args = getelementptr inbounds i8, ptr %this, i64 32
  store ptr null, ptr %m_args, align 8
  %conv = zext i32 %n to i64
  %0 = shl nuw nsw i64 %conv, 3
  %call.i = tail call noundef ptr @_ZN6region8allocateEm(ptr noundef nonnull align 8 dereferenceable(40) %r, i64 noundef %0)
  store ptr %call.i, ptr %m_args, align 8
  tail call void @llvm.memcpy.p0.p0.i64(ptr align 8 %call.i, ptr align 8 %args, i64 %0, i1 false)
  ret void
}